; Function Attrs: nounwind uwtable
define noalias nonnull ptr @l_IO_Error_mkIllegalOperation___boxed(ptr noundef %0, ptr noundef %1) local_unnamed_addr #0 {
  %3 = ptrtoint ptr %0 to i64
  %4 = and i64 %3, 1
  %.not = icmp eq i64 %4, 0
  br i1 %.not, label %5, label %lean_dec.exit

5:                                                ; preds = %2
  %6 = load i32, ptr %0, align 4, !tbaa !4
  %7 = icmp sgt i32 %6, 1
  br i1 %7, label %8, label %10, !prof !14

8:                                                ; preds = %5
  %9 = add nsw i32 %6, -1
  store i32 %9, ptr %0, align 4, !tbaa !4
  br label %lean_dec.exit

10:                                               ; preds = %5
  %.not.i = icmp eq i32 %6, 0
  br i1 %.not.i, label %lean_dec.exit, label %11

11:                                               ; preds = %10
  tail call void @lean_dec_ref_cold(ptr noundef nonnull %0) #4
  br label %lean_dec.exit

lean_dec.exit:                                    ; preds = %11, %10, %8, %2
  tail call void @lean_inc_heartbeat() #4
  %12 = tail call noalias ptr @mi_malloc_small(i64 noundef 24) #4
  %13 = icmp eq ptr %12, null
  br i1 %13, label %14, label %lean_mk_io_error_illegal_operation.exit

14:                                               ; preds = %lean_dec.exit
  tail call void @lean_internal_panic_out_of_memory() #5
  unreachable

lean_mk_io_error_illegal_operation.exit:          ; preds = %lean_dec.exit
  %15 = lshr i64 %3, 1
  %16 = trunc i64 %15 to i32
  %17 = getelementptr inbounds nuw i8, ptr %12, i64 4
  %18 = getelementptr inbounds nuw i8, ptr %12, i64 16
  store i64 0, ptr %18, align 8, !tbaa !11
  store i32 1, ptr %12, align 4, !tbaa !4
  store i32 117506072, ptr %17, align 4
  %19 = getelementptr inbounds nuw i8, ptr %12, i64 8
  store ptr %1, ptr %19, align 8, !tbaa !9
  store i32 %16, ptr %18, align 4, !tbaa !13
  ret ptr %12
}